
program.elf:     file format elf32-littleriscv


Disassembly of section .text:

00002000 <_start>:
    2000:	00007117          	auipc	sp,0x7
    2004:	00010113          	mv	sp,sp
    2008:	0c8000ef          	jal	20d0 <runtime_init>
    200c:	ff5ff06f          	j	2000 <_start>

00002010 <write_mmio>:
    2010:	fd010113          	addi	sp,sp,-48 # 8fd0 <_end+0x1fd0>
    2014:	02112623          	sw	ra,44(sp)
    2018:	02812423          	sw	s0,40(sp)
    201c:	03010413          	addi	s0,sp,48
    2020:	fca42e23          	sw	a0,-36(s0)
    2024:	fcb42c23          	sw	a1,-40(s0)
    2028:	fdc42783          	lw	a5,-36(s0)
    202c:	fef42623          	sw	a5,-20(s0)
    2030:	fec42783          	lw	a5,-20(s0)
    2034:	fd842703          	lw	a4,-40(s0)
    2038:	00e7a023          	sw	a4,0(a5)
    203c:	00000013          	nop
    2040:	02c12083          	lw	ra,44(sp)
    2044:	02812403          	lw	s0,40(sp)
    2048:	03010113          	addi	sp,sp,48
    204c:	00008067          	ret

00002050 <write_to_peripheral>:
    2050:	fd010113          	addi	sp,sp,-48
    2054:	02112623          	sw	ra,44(sp)
    2058:	02812423          	sw	s0,40(sp)
    205c:	03010413          	addi	s0,sp,48
    2060:	fca42e23          	sw	a0,-36(s0)
    2064:	fcb42c23          	sw	a1,-40(s0)
    2068:	fdc42783          	lw	a5,-36(s0)
    206c:	fef42623          	sw	a5,-20(s0)
    2070:	fec42783          	lw	a5,-20(s0)
    2074:	fd842703          	lw	a4,-40(s0)
    2078:	00e7a023          	sw	a4,0(a5)
    207c:	00000013          	nop
    2080:	02c12083          	lw	ra,44(sp)
    2084:	02812403          	lw	s0,40(sp)
    2088:	03010113          	addi	sp,sp,48
    208c:	00008067          	ret

00002090 <fail>:
    2090:	fe010113          	addi	sp,sp,-32
    2094:	00112e23          	sw	ra,28(sp)
    2098:	00812c23          	sw	s0,24(sp)
    209c:	02010413          	addi	s0,sp,32
    20a0:	fea42623          	sw	a0,-20(s0)
    20a4:	fec42783          	lw	a5,-20(s0)
    20a8:	00078593          	mv	a1,a5
    20ac:	000057b7          	lui	a5,0x5
    20b0:	80878513          	addi	a0,a5,-2040 # 4808 <_etext+0x2410>
    20b4:	f5dff0ef          	jal	2010 <write_mmio>
    20b8:	0badf7b7          	lui	a5,0xbadf
    20bc:	00d78593          	addi	a1,a5,13 # badf00d <_stack_start+0xbad600d>
    20c0:	000057b7          	lui	a5,0x5
    20c4:	80078513          	addi	a0,a5,-2048 # 4800 <_etext+0x2408>
    20c8:	f49ff0ef          	jal	2010 <write_mmio>
    20cc:	0000006f          	j	20cc <fail+0x3c>

000020d0 <runtime_init>:
    20d0:	fe010113          	addi	sp,sp,-32
    20d4:	00112e23          	sw	ra,28(sp)
    20d8:	00812c23          	sw	s0,24(sp)
    20dc:	02010413          	addi	s0,sp,32
    20e0:	0e0000ef          	jal	21c0 <main>
    20e4:	fea42623          	sw	a0,-20(s0)
    20e8:	deadc7b7          	lui	a5,0xdeadc
    20ec:	eef78593          	addi	a1,a5,-273 # deadbeef <_stack_start+0xdead2eef>
    20f0:	000057b7          	lui	a5,0x5
    20f4:	80078513          	addi	a0,a5,-2048 # 4800 <_etext+0x2408>
    20f8:	f19ff0ef          	jal	2010 <write_mmio>
    20fc:	0000006f          	j	20fc <runtime_init+0x2c>

00002100 <write_mmio>:
    2100:	fd010113          	addi	sp,sp,-48
    2104:	02112623          	sw	ra,44(sp)
    2108:	02812423          	sw	s0,40(sp)
    210c:	03010413          	addi	s0,sp,48
    2110:	fca42e23          	sw	a0,-36(s0)
    2114:	fcb42c23          	sw	a1,-40(s0)
    2118:	fdc42783          	lw	a5,-36(s0)
    211c:	fef42623          	sw	a5,-20(s0)
    2120:	fec42783          	lw	a5,-20(s0)
    2124:	fd842703          	lw	a4,-40(s0)
    2128:	00e7a023          	sw	a4,0(a5)
    212c:	00000013          	nop
    2130:	02c12083          	lw	ra,44(sp)
    2134:	02812403          	lw	s0,40(sp)
    2138:	03010113          	addi	sp,sp,48
    213c:	00008067          	ret

00002140 <write_to_peripheral>:
    2140:	fd010113          	addi	sp,sp,-48
    2144:	02112623          	sw	ra,44(sp)
    2148:	02812423          	sw	s0,40(sp)
    214c:	03010413          	addi	s0,sp,48
    2150:	fca42e23          	sw	a0,-36(s0)
    2154:	fcb42c23          	sw	a1,-40(s0)
    2158:	fdc42783          	lw	a5,-36(s0)
    215c:	fef42623          	sw	a5,-20(s0)
    2160:	fec42783          	lw	a5,-20(s0)
    2164:	fd842703          	lw	a4,-40(s0)
    2168:	00e7a023          	sw	a4,0(a5)
    216c:	00000013          	nop
    2170:	02c12083          	lw	ra,44(sp)
    2174:	02812403          	lw	s0,40(sp)
    2178:	03010113          	addi	sp,sp,48
    217c:	00008067          	ret

00002180 <fail>:
    2180:	fe010113          	addi	sp,sp,-32
    2184:	00112e23          	sw	ra,28(sp)
    2188:	00812c23          	sw	s0,24(sp)
    218c:	02010413          	addi	s0,sp,32
    2190:	fea42623          	sw	a0,-20(s0)
    2194:	fec42783          	lw	a5,-20(s0)
    2198:	00078593          	mv	a1,a5
    219c:	000057b7          	lui	a5,0x5
    21a0:	80878513          	addi	a0,a5,-2040 # 4808 <_etext+0x2410>
    21a4:	f5dff0ef          	jal	2100 <write_mmio>
    21a8:	0badf7b7          	lui	a5,0xbadf
    21ac:	00d78593          	addi	a1,a5,13 # badf00d <_stack_start+0xbad600d>
    21b0:	000057b7          	lui	a5,0x5
    21b4:	80078513          	addi	a0,a5,-2048 # 4800 <_etext+0x2408>
    21b8:	f49ff0ef          	jal	2100 <write_mmio>
    21bc:	0000006f          	j	21bc <fail+0x3c>

000021c0 <main>:
    21c0:	fe010113          	addi	sp,sp,-32
    21c4:	00112e23          	sw	ra,28(sp)
    21c8:	00812c23          	sw	s0,24(sp)
    21cc:	02010413          	addi	s0,sp,32
    21d0:	fe042623          	sw	zero,-20(s0)
    21d4:	00c00793          	li	a5,12
    21d8:	fef42623          	sw	a5,-20(s0)
    21dc:	fec42703          	lw	a4,-20(s0)
    21e0:	00c00793          	li	a5,12
    21e4:	00f70663          	beq	a4,a5,21f0 <main+0x30>
    21e8:	00100513          	li	a0,1
    21ec:	f95ff0ef          	jal	2180 <fail>
    21f0:	fec42783          	lw	a5,-20(s0)
    21f4:	ffd78793          	addi	a5,a5,-3
    21f8:	fef42623          	sw	a5,-20(s0)
    21fc:	fec42703          	lw	a4,-20(s0)
    2200:	00900793          	li	a5,9
    2204:	00f70663          	beq	a4,a5,2210 <main+0x50>
    2208:	00200513          	li	a0,2
    220c:	f75ff0ef          	jal	2180 <fail>
    2210:	fec42783          	lw	a5,-20(s0)
    2214:	00f7c793          	xori	a5,a5,15
    2218:	fef42623          	sw	a5,-20(s0)
    221c:	fec42703          	lw	a4,-20(s0)
    2220:	00600793          	li	a5,6
    2224:	00f70663          	beq	a4,a5,2230 <main+0x70>
    2228:	00300513          	li	a0,3
    222c:	f55ff0ef          	jal	2180 <fail>
    2230:	fec42783          	lw	a5,-20(s0)
    2234:	0107e793          	ori	a5,a5,16
    2238:	fef42623          	sw	a5,-20(s0)
    223c:	fec42703          	lw	a4,-20(s0)
    2240:	01600793          	li	a5,22
    2244:	00f70663          	beq	a4,a5,2250 <main+0x90>
    2248:	00400513          	li	a0,4
    224c:	f35ff0ef          	jal	2180 <fail>
    2250:	fec42783          	lw	a5,-20(s0)
    2254:	01f7f793          	andi	a5,a5,31
    2258:	fef42623          	sw	a5,-20(s0)
    225c:	fec42703          	lw	a4,-20(s0)
    2260:	01600793          	li	a5,22
    2264:	00f70663          	beq	a4,a5,2270 <main+0xb0>
    2268:	00500513          	li	a0,5
    226c:	f15ff0ef          	jal	2180 <fail>
    2270:	fec42783          	lw	a5,-20(s0)
    2274:	00179793          	slli	a5,a5,0x1
    2278:	fef42623          	sw	a5,-20(s0)
    227c:	fec42703          	lw	a4,-20(s0)
    2280:	02c00793          	li	a5,44
    2284:	00f70663          	beq	a4,a5,2290 <main+0xd0>
    2288:	00600513          	li	a0,6
    228c:	ef5ff0ef          	jal	2180 <fail>
    2290:	fec42783          	lw	a5,-20(s0)
    2294:	0017d793          	srli	a5,a5,0x1
    2298:	fef42623          	sw	a5,-20(s0)
    229c:	fec42703          	lw	a4,-20(s0)
    22a0:	01600793          	li	a5,22
    22a4:	00f70663          	beq	a4,a5,22b0 <main+0xf0>
    22a8:	00700513          	li	a0,7
    22ac:	ed5ff0ef          	jal	2180 <fail>
    22b0:	ffc00793          	li	a5,-4
    22b4:	fef42623          	sw	a5,-20(s0)
    22b8:	fec42703          	lw	a4,-20(s0)
    22bc:	ffc00793          	li	a5,-4
    22c0:	00f70663          	beq	a4,a5,22cc <main+0x10c>
    22c4:	00800513          	li	a0,8
    22c8:	eb9ff0ef          	jal	2180 <fail>
    22cc:	02000793          	li	a5,32
    22d0:	fef42623          	sw	a5,-20(s0)
    22d4:	fec42703          	lw	a4,-20(s0)
    22d8:	02000793          	li	a5,32
    22dc:	00f70663          	beq	a4,a5,22e8 <main+0x128>
    22e0:	00900513          	li	a0,9
    22e4:	e9dff0ef          	jal	2180 <fail>
    22e8:	040007b7          	lui	a5,0x4000
    22ec:	fef42623          	sw	a5,-20(s0)
    22f0:	fec42703          	lw	a4,-20(s0)
    22f4:	040007b7          	lui	a5,0x4000
    22f8:	00f70663          	beq	a4,a5,2304 <main+0x144>
    22fc:	00a00513          	li	a0,10
    2300:	e81ff0ef          	jal	2180 <fail>
    2304:	0000d7b7          	lui	a5,0xd
    2308:	fc778793          	addi	a5,a5,-57 # cfc7 <_stack_start+0x3fc7>
    230c:	fef42423          	sw	a5,-24(s0)
    2310:	fe842783          	lw	a5,-24(s0)
    2314:	01079793          	slli	a5,a5,0x10
    2318:	4107d793          	srai	a5,a5,0x10
    231c:	fef42623          	sw	a5,-20(s0)
    2320:	fec42703          	lw	a4,-20(s0)
    2324:	ffffd7b7          	lui	a5,0xffffd
    2328:	fc778793          	addi	a5,a5,-57 # ffffcfc7 <_stack_start+0xffff3fc7>
    232c:	00f70663          	beq	a4,a5,2338 <main+0x178>
    2330:	00b00513          	li	a0,11
    2334:	e4dff0ef          	jal	2180 <fail>
    2338:	03200793          	li	a5,50
    233c:	fef42623          	sw	a5,-20(s0)
    2340:	fec42703          	lw	a4,-20(s0)
    2344:	03200793          	li	a5,50
    2348:	00f70663          	beq	a4,a5,2354 <main+0x194>
    234c:	00c00513          	li	a0,12
    2350:	e31ff0ef          	jal	2180 <fail>
    2354:	032547b7          	lui	a5,0x3254
    2358:	76978793          	addi	a5,a5,1897 # 3254769 <_stack_start+0x324b769>
    235c:	fef42623          	sw	a5,-20(s0)
    2360:	fec42703          	lw	a4,-20(s0)
    2364:	032547b7          	lui	a5,0x3254
    2368:	76978793          	addi	a5,a5,1897 # 3254769 <_stack_start+0x324b769>
    236c:	00f70663          	beq	a4,a5,2378 <main+0x1b8>
    2370:	00d00513          	li	a0,13
    2374:	e0dff0ef          	jal	2180 <fail>
    2378:	1f1f27b7          	lui	a5,0x1f1f2
    237c:	f1f78793          	addi	a5,a5,-225 # 1f1f1f1f <_stack_start+0x1f1e8f1f>
    2380:	fef42623          	sw	a5,-20(s0)
    2384:	fec42703          	lw	a4,-20(s0)
    2388:	1f1f27b7          	lui	a5,0x1f1f2
    238c:	f1f78793          	addi	a5,a5,-225 # 1f1f1f1f <_stack_start+0x1f1e8f1f>
    2390:	00f70663          	beq	a4,a5,239c <main+0x1dc>
    2394:	00e00513          	li	a0,14
    2398:	de9ff0ef          	jal	2180 <fail>
    239c:	fe042623          	sw	zero,-20(s0)
    23a0:	fec42783          	lw	a5,-20(s0)
    23a4:	00078663          	beqz	a5,23b0 <main+0x1f0>
    23a8:	00f00513          	li	a0,15
    23ac:	dd5ff0ef          	jal	2180 <fail>
    23b0:	001237b7          	lui	a5,0x123
    23b4:	fef42623          	sw	a5,-20(s0)
    23b8:	fec42703          	lw	a4,-20(s0)
    23bc:	001237b7          	lui	a5,0x123
    23c0:	00f70663          	beq	a4,a5,23cc <main+0x20c>
    23c4:	01000513          	li	a0,16
    23c8:	db9ff0ef          	jal	2180 <fail>
    23cc:	deadc7b7          	lui	a5,0xdeadc
    23d0:	eef78593          	addi	a1,a5,-273 # deadbeef <_stack_start+0xdead2eef>
    23d4:	000057b7          	lui	a5,0x5
    23d8:	80878513          	addi	a0,a5,-2040 # 4808 <_etext+0x2410>
    23dc:	d25ff0ef          	jal	2100 <write_mmio>
    23e0:	00000793          	li	a5,0
    23e4:	00078513          	mv	a0,a5
    23e8:	01c12083          	lw	ra,28(sp)
    23ec:	01812403          	lw	s0,24(sp)
    23f0:	02010113          	addi	sp,sp,32
    23f4:	00008067          	ret

Disassembly of section .riscv.attributes:

00000000 <.riscv.attributes>:
   0:	3741                	.insn	2, 0x3741
   2:	0000                	.insn	2, 0x
   4:	7200                	.insn	2, 0x7200
   6:	7369                	.insn	2, 0x7369
   8:	01007663          	bgeu	zero,a6,14 <__DYNAMIC+0x14>
   c:	002d                	.insn	2, 0x002d
   e:	0000                	.insn	2, 0x
  10:	1004                	.insn	2, 0x1004
  12:	7205                	.insn	2, 0x7205
  14:	3376                	.insn	2, 0x3376
  16:	6932                	.insn	2, 0x6932
  18:	7032                	.insn	2, 0x7032
  1a:	5f31                	.insn	2, 0x5f31
  1c:	326d                	.insn	2, 0x326d
  1e:	3070                	.insn	2, 0x3070
  20:	665f 7032 5f32      	.insn	6, 0x5f327032665f
  26:	697a                	.insn	2, 0x697a
  28:	32727363          	bgeu	tp,t2,34e <__DYNAMIC+0x34e>
  2c:	3070                	.insn	2, 0x3070
  2e:	7a5f 6d6d 6c75      	.insn	6, 0x6c756d6d7a5f
  34:	7031                	.insn	2, 0x7031
  36:	0030                	.insn	2, 0x0030

Disassembly of section .comment:

00000000 <.comment>:
   0:	3a434347          	.insn	4, 0x3a434347
   4:	2820                	.insn	2, 0x2820
   6:	36343067          	.insn	4, 0x36343067
   a:	3639                	.insn	2, 0x3639
   c:	6664                	.insn	2, 0x6664
   e:	3930                	.insn	2, 0x3930
  10:	3336                	.insn	2, 0x3336
  12:	2029                	.insn	2, 0x2029
  14:	3431                	.insn	2, 0x3431
  16:	322e                	.insn	2, 0x322e
  18:	302e                	.insn	2, 0x302e
	...
