
program.elf:     file format elf32-littleriscv


Disassembly of section .text:

00002000 <write_mmio>:
    2000:	fd010113          	addi	sp,sp,-48
    2004:	02112623          	sw	ra,44(sp)
    2008:	02812423          	sw	s0,40(sp)
    200c:	03010413          	addi	s0,sp,48
    2010:	fca42e23          	sw	a0,-36(s0)
    2014:	fcb42c23          	sw	a1,-40(s0)
    2018:	fdc42783          	lw	a5,-36(s0)
    201c:	fef42623          	sw	a5,-20(s0)
    2020:	fec42783          	lw	a5,-20(s0)
    2024:	fd842703          	lw	a4,-40(s0)
    2028:	00e7a023          	sw	a4,0(a5)
    202c:	00000013          	nop
    2030:	02c12083          	lw	ra,44(sp)
    2034:	02812403          	lw	s0,40(sp)
    2038:	03010113          	addi	sp,sp,48
    203c:	00008067          	ret

00002040 <write_to_peripheral>:
    2040:	fd010113          	addi	sp,sp,-48
    2044:	02112623          	sw	ra,44(sp)
    2048:	02812423          	sw	s0,40(sp)
    204c:	03010413          	addi	s0,sp,48
    2050:	fca42e23          	sw	a0,-36(s0)
    2054:	fcb42c23          	sw	a1,-40(s0)
    2058:	fdc42783          	lw	a5,-36(s0)
    205c:	fef42623          	sw	a5,-20(s0)
    2060:	fec42783          	lw	a5,-20(s0)
    2064:	fd842703          	lw	a4,-40(s0)
    2068:	00e7a023          	sw	a4,0(a5)
    206c:	00000013          	nop
    2070:	02c12083          	lw	ra,44(sp)
    2074:	02812403          	lw	s0,40(sp)
    2078:	03010113          	addi	sp,sp,48
    207c:	00008067          	ret

00002080 <fail>:
    2080:	fe010113          	addi	sp,sp,-32
    2084:	00112e23          	sw	ra,28(sp)
    2088:	00812c23          	sw	s0,24(sp)
    208c:	02010413          	addi	s0,sp,32
    2090:	fea42623          	sw	a0,-20(s0)
    2094:	fec42783          	lw	a5,-20(s0)
    2098:	00078593          	mv	a1,a5
    209c:	000057b7          	lui	a5,0x5
    20a0:	80878513          	addi	a0,a5,-2040 # 4808 <_etext+0x264c>
    20a4:	f5dff0ef          	jal	2000 <write_mmio>
    20a8:	0badf7b7          	lui	a5,0xbadf
    20ac:	00d78593          	addi	a1,a5,13 # badf00d <_stack_start+0xbad600d>
    20b0:	000057b7          	lui	a5,0x5
    20b4:	80078513          	addi	a0,a5,-2048 # 4800 <_etext+0x2644>
    20b8:	f49ff0ef          	jal	2000 <write_mmio>
    20bc:	0000006f          	j	20bc <fail+0x3c>

000020c0 <main>:
    20c0:	f6010113          	addi	sp,sp,-160
    20c4:	08112e23          	sw	ra,156(sp)
    20c8:	08812c23          	sw	s0,152(sp)
    20cc:	0a010413          	addi	s0,sp,160
    20d0:	fe042623          	sw	zero,-20(s0)
    20d4:	fe042423          	sw	zero,-24(s0)
    20d8:	02c0006f          	j	2104 <main+0x44>
    20dc:	fe842783          	lw	a5,-24(s0)
    20e0:	00178713          	addi	a4,a5,1
    20e4:	fe842683          	lw	a3,-24(s0)
    20e8:	f6c40793          	addi	a5,s0,-148
    20ec:	00269693          	slli	a3,a3,0x2
    20f0:	00f687b3          	add	a5,a3,a5
    20f4:	00e7a023          	sw	a4,0(a5)
    20f8:	fe842783          	lw	a5,-24(s0)
    20fc:	00178793          	addi	a5,a5,1
    2100:	fef42423          	sw	a5,-24(s0)
    2104:	fe842703          	lw	a4,-24(s0)
    2108:	01d00793          	li	a5,29
    210c:	fce7d8e3          	bge	a5,a4,20dc <main+0x1c>
    2110:	fe042223          	sw	zero,-28(s0)
    2114:	0400006f          	j	2154 <main+0x94>
    2118:	fe442703          	lw	a4,-28(s0)
    211c:	f6c40793          	addi	a5,s0,-148
    2120:	00271713          	slli	a4,a4,0x2
    2124:	00f707b3          	add	a5,a4,a5
    2128:	0007a783          	lw	a5,0(a5)
    212c:	fec42703          	lw	a4,-20(s0)
    2130:	00f707b3          	add	a5,a4,a5
    2134:	fef42623          	sw	a5,-20(s0)
    2138:	fec42583          	lw	a1,-20(s0)
    213c:	000057b7          	lui	a5,0x5
    2140:	80878513          	addi	a0,a5,-2040 # 4808 <_etext+0x264c>
    2144:	efdff0ef          	jal	2040 <write_to_peripheral>
    2148:	fe442783          	lw	a5,-28(s0)
    214c:	00178793          	addi	a5,a5,1
    2150:	fef42223          	sw	a5,-28(s0)
    2154:	fe442703          	lw	a4,-28(s0)
    2158:	01d00793          	li	a5,29
    215c:	fae7dee3          	bge	a5,a4,2118 <main+0x58>
    2160:	fec42583          	lw	a1,-20(s0)
    2164:	000057b7          	lui	a5,0x5
    2168:	80478513          	addi	a0,a5,-2044 # 4804 <_etext+0x2648>
    216c:	ed5ff0ef          	jal	2040 <write_to_peripheral>
    2170:	fec42703          	lw	a4,-20(s0)
    2174:	1d100793          	li	a5,465
    2178:	00f71e63          	bne	a4,a5,2194 <main+0xd4>
    217c:	deadc7b7          	lui	a5,0xdeadc
    2180:	eef78593          	addi	a1,a5,-273 # deadbeef <_stack_start+0xdead2eef>
    2184:	000057b7          	lui	a5,0x5
    2188:	80078513          	addi	a0,a5,-2048 # 4800 <_etext+0x2644>
    218c:	eb5ff0ef          	jal	2040 <write_to_peripheral>
    2190:	0180006f          	j	21a8 <main+0xe8>
    2194:	0badf7b7          	lui	a5,0xbadf
    2198:	00d78593          	addi	a1,a5,13 # badf00d <_stack_start+0xbad600d>
    219c:	000057b7          	lui	a5,0x5
    21a0:	80078513          	addi	a0,a5,-2048 # 4800 <_etext+0x2644>
    21a4:	e9dff0ef          	jal	2040 <write_to_peripheral>
    21a8:	0000006f          	j	21a8 <main+0xe8>

000021ac <_start>:
    21ac:	00007117          	auipc	sp,0x7
    21b0:	e5410113          	addi	sp,sp,-428 # 9000 <_stack_start>
    21b4:	f0dff0ef          	jal	20c0 <main>
    21b8:	ff5ff06f          	j	21ac <_start>

Disassembly of section .comment:

00000000 <.comment>:
   0:	3a434347          	.insn	4, 0x3a434347
   4:	2820                	.insn	2, 0x2820
   6:	36343067          	.insn	4, 0x36343067
   a:	3639                	.insn	2, 0x3639
   c:	6664                	.insn	2, 0x6664
   e:	3930                	.insn	2, 0x3930
  10:	3336                	.insn	2, 0x3336
  12:	2029                	.insn	2, 0x2029
  14:	3431                	.insn	2, 0x3431
  16:	322e                	.insn	2, 0x322e
  18:	302e                	.insn	2, 0x302e
	...

Disassembly of section .riscv.attributes:

00000000 <.riscv.attributes>:
   0:	3241                	.insn	2, 0x3241
   2:	0000                	.insn	2, 0x
   4:	7200                	.insn	2, 0x7200
   6:	7369                	.insn	2, 0x7369
   8:	01007663          	bgeu	zero,a6,14 <__DYNAMIC+0x14>
   c:	0028                	.insn	2, 0x0028
   e:	0000                	.insn	2, 0x
  10:	1004                	.insn	2, 0x1004
  12:	7205                	.insn	2, 0x7205
  14:	3376                	.insn	2, 0x3376
  16:	6932                	.insn	2, 0x6932
  18:	7032                	.insn	2, 0x7032
  1a:	5f31                	.insn	2, 0x5f31
  1c:	326d                	.insn	2, 0x326d
  1e:	3070                	.insn	2, 0x3070
  20:	7a5f 6369 7273      	.insn	6, 0x727363697a5f
  26:	7032                	.insn	2, 0x7032
  28:	5f30                	.insn	2, 0x5f30
  2a:	6d7a                	.insn	2, 0x6d7a
  2c:	756d                	.insn	2, 0x756d
  2e:	316c                	.insn	2, 0x316c
  30:	3070                	.insn	2, 0x3070
	...
