
program.elf:     file format elf32-littleriscv


Disassembly of section .text:

00002000 <write_mmio>:
    2000:	fd010113          	addi	sp,sp,-48
    2004:	02112623          	sw	ra,44(sp)
    2008:	02812423          	sw	s0,40(sp)
    200c:	03010413          	addi	s0,sp,48
    2010:	fca42e23          	sw	a0,-36(s0)
    2014:	fcb42c23          	sw	a1,-40(s0)
    2018:	fdc42783          	lw	a5,-36(s0)
    201c:	fef42623          	sw	a5,-20(s0)
    2020:	fec42783          	lw	a5,-20(s0)
    2024:	fd842703          	lw	a4,-40(s0)
    2028:	00e7a023          	sw	a4,0(a5)
    202c:	00000013          	nop
    2030:	02c12083          	lw	ra,44(sp)
    2034:	02812403          	lw	s0,40(sp)
    2038:	03010113          	addi	sp,sp,48
    203c:	00008067          	ret

00002040 <write_to_peripheral>:
    2040:	fd010113          	addi	sp,sp,-48
    2044:	02112623          	sw	ra,44(sp)
    2048:	02812423          	sw	s0,40(sp)
    204c:	03010413          	addi	s0,sp,48
    2050:	fca42e23          	sw	a0,-36(s0)
    2054:	fcb42c23          	sw	a1,-40(s0)
    2058:	fdc42783          	lw	a5,-36(s0)
    205c:	fef42623          	sw	a5,-20(s0)
    2060:	fec42783          	lw	a5,-20(s0)
    2064:	fd842703          	lw	a4,-40(s0)
    2068:	00e7a023          	sw	a4,0(a5)
    206c:	00000013          	nop
    2070:	02c12083          	lw	ra,44(sp)
    2074:	02812403          	lw	s0,40(sp)
    2078:	03010113          	addi	sp,sp,48
    207c:	00008067          	ret

00002080 <fail>:
    2080:	fe010113          	addi	sp,sp,-32
    2084:	00112e23          	sw	ra,28(sp)
    2088:	00812c23          	sw	s0,24(sp)
    208c:	02010413          	addi	s0,sp,32
    2090:	fea42623          	sw	a0,-20(s0)
    2094:	fec42783          	lw	a5,-20(s0)
    2098:	00078593          	mv	a1,a5
    209c:	000057b7          	lui	a5,0x5
    20a0:	80878513          	addi	a0,a5,-2040 # 4808 <_etext+0x238c>
    20a4:	f5dff0ef          	jal	2000 <write_mmio>
    20a8:	0badf7b7          	lui	a5,0xbadf
    20ac:	00d78593          	addi	a1,a5,13 # badf00d <_stack_start+0xbad600d>
    20b0:	000057b7          	lui	a5,0x5
    20b4:	80078513          	addi	a0,a5,-2048 # 4800 <_etext+0x2384>
    20b8:	f49ff0ef          	jal	2000 <write_mmio>
    20bc:	0000006f          	j	20bc <fail+0x3c>

000020c0 <read_mtime>:
    20c0:	fe010113          	addi	sp,sp,-32
    20c4:	00112e23          	sw	ra,28(sp)
    20c8:	00812c23          	sw	s0,24(sp)
    20cc:	02010413          	addi	s0,sp,32
    20d0:	00005337          	lui	t1,0x5
    20d4:	90430313          	addi	t1,t1,-1788 # 4904 <_etext+0x2488>
    20d8:	00032303          	lw	t1,0(t1)
    20dc:	fe642623          	sw	t1,-20(s0)
    20e0:	00005337          	lui	t1,0x5
    20e4:	90030313          	addi	t1,t1,-1792 # 4900 <_etext+0x2484>
    20e8:	00032303          	lw	t1,0(t1)
    20ec:	fe642423          	sw	t1,-24(s0)
    20f0:	00005337          	lui	t1,0x5
    20f4:	90430313          	addi	t1,t1,-1788 # 4904 <_etext+0x2488>
    20f8:	00032303          	lw	t1,0(t1)
    20fc:	fec42e03          	lw	t3,-20(s0)
    2100:	fc6e18e3          	bne	t3,t1,20d0 <read_mtime+0x10>
    2104:	fec42303          	lw	t1,-20(s0)
    2108:	00030813          	mv	a6,t1
    210c:	00000893          	li	a7,0
    2110:	00081793          	slli	a5,a6,0x0
    2114:	00000713          	li	a4,0
    2118:	fe842803          	lw	a6,-24(s0)
    211c:	00080613          	mv	a2,a6
    2120:	00000693          	li	a3,0
    2124:	00c76533          	or	a0,a4,a2
    2128:	00d7e5b3          	or	a1,a5,a3
    212c:	00050713          	mv	a4,a0
    2130:	00058793          	mv	a5,a1
    2134:	00070513          	mv	a0,a4
    2138:	00078593          	mv	a1,a5
    213c:	01c12083          	lw	ra,28(sp)
    2140:	01812403          	lw	s0,24(sp)
    2144:	02010113          	addi	sp,sp,32
    2148:	00008067          	ret

0000214c <set_timer>:
    214c:	fc010113          	addi	sp,sp,-64
    2150:	02112e23          	sw	ra,60(sp)
    2154:	02812c23          	sw	s0,56(sp)
    2158:	03212a23          	sw	s2,52(sp)
    215c:	03312823          	sw	s3,48(sp)
    2160:	04010413          	addi	s0,sp,64
    2164:	fca42423          	sw	a0,-56(s0)
    2168:	fcb42623          	sw	a1,-52(s0)
    216c:	f55ff0ef          	jal	20c0 <read_mtime>
    2170:	fea42423          	sw	a0,-24(s0)
    2174:	feb42623          	sw	a1,-20(s0)
    2178:	fe842603          	lw	a2,-24(s0)
    217c:	fec42683          	lw	a3,-20(s0)
    2180:	fc842503          	lw	a0,-56(s0)
    2184:	fcc42583          	lw	a1,-52(s0)
    2188:	00a60733          	add	a4,a2,a0
    218c:	00070813          	mv	a6,a4
    2190:	00c83833          	sltu	a6,a6,a2
    2194:	00b687b3          	add	a5,a3,a1
    2198:	00f806b3          	add	a3,a6,a5
    219c:	00068793          	mv	a5,a3
    21a0:	fee42023          	sw	a4,-32(s0)
    21a4:	fef42223          	sw	a5,-28(s0)
    21a8:	fe042783          	lw	a5,-32(s0)
    21ac:	fcf42e23          	sw	a5,-36(s0)
    21b0:	fe442783          	lw	a5,-28(s0)
    21b4:	0007d913          	srli	s2,a5,0x0
    21b8:	00000993          	li	s3,0
    21bc:	fd242c23          	sw	s2,-40(s0)
    21c0:	000057b7          	lui	a5,0x5
    21c4:	90c78793          	addi	a5,a5,-1780 # 490c <_etext+0x2490>
    21c8:	fff00713          	li	a4,-1
    21cc:	00e7a023          	sw	a4,0(a5)
    21d0:	000057b7          	lui	a5,0x5
    21d4:	90878793          	addi	a5,a5,-1784 # 4908 <_etext+0x248c>
    21d8:	fdc42703          	lw	a4,-36(s0)
    21dc:	00e7a023          	sw	a4,0(a5)
    21e0:	000057b7          	lui	a5,0x5
    21e4:	90c78793          	addi	a5,a5,-1780 # 490c <_etext+0x2490>
    21e8:	fd842703          	lw	a4,-40(s0)
    21ec:	00e7a023          	sw	a4,0(a5)
    21f0:	00000013          	nop
    21f4:	03c12083          	lw	ra,60(sp)
    21f8:	03812403          	lw	s0,56(sp)
    21fc:	03412903          	lw	s2,52(sp)
    2200:	03012983          	lw	s3,48(sp)
    2204:	04010113          	addi	sp,sp,64
    2208:	00008067          	ret

0000220c <csr_write_mtvec>:
    220c:	fe010113          	addi	sp,sp,-32
    2210:	00112e23          	sw	ra,28(sp)
    2214:	00812c23          	sw	s0,24(sp)
    2218:	02010413          	addi	s0,sp,32
    221c:	fea42623          	sw	a0,-20(s0)
    2220:	fec42783          	lw	a5,-20(s0)
    2224:	30579073          	csrw	mtvec,a5
    2228:	00000013          	nop
    222c:	01c12083          	lw	ra,28(sp)
    2230:	01812403          	lw	s0,24(sp)
    2234:	02010113          	addi	sp,sp,32
    2238:	00008067          	ret

0000223c <enable_timer_interrupts>:
    223c:	ff010113          	addi	sp,sp,-16
    2240:	00112623          	sw	ra,12(sp)
    2244:	00812423          	sw	s0,8(sp)
    2248:	01010413          	addi	s0,sp,16
    224c:	08000793          	li	a5,128
    2250:	3047a073          	csrs	mie,a5
    2254:	00800793          	li	a5,8
    2258:	3007a073          	csrs	mstatus,a5
    225c:	00000013          	nop
    2260:	00c12083          	lw	ra,12(sp)
    2264:	00812403          	lw	s0,8(sp)
    2268:	01010113          	addi	sp,sp,16
    226c:	00008067          	ret

00002270 <on_timer_irq>:
    2270:	ff010113          	addi	sp,sp,-16
    2274:	00112623          	sw	ra,12(sp)
    2278:	00812423          	sw	s0,8(sp)
    227c:	01010413          	addi	s0,sp,16
    2280:	000057b7          	lui	a5,0x5
    2284:	80078793          	addi	a5,a5,-2048 # 4800 <_etext+0x2384>
    2288:	deadc737          	lui	a4,0xdeadc
    228c:	eef70713          	addi	a4,a4,-273 # deadbeef <_stack_start+0xdead2eef>
    2290:	00e7a023          	sw	a4,0(a5)
    2294:	000057b7          	lui	a5,0x5
    2298:	00100713          	li	a4,1
    229c:	00e7a023          	sw	a4,0(a5) # 5000 <timer_triggered>
    22a0:	00000013          	nop
    22a4:	00c12083          	lw	ra,12(sp)
    22a8:	00812403          	lw	s0,8(sp)
    22ac:	01010113          	addi	sp,sp,16
    22b0:	00008067          	ret

000022b4 <trap_handler>:
    22b4:	f8010113          	addi	sp,sp,-128
    22b8:	00112023          	sw	ra,0(sp)
    22bc:	00512223          	sw	t0,4(sp)
    22c0:	00612423          	sw	t1,8(sp)
    22c4:	00712623          	sw	t2,12(sp)
    22c8:	00812823          	sw	s0,16(sp)
    22cc:	00912a23          	sw	s1,20(sp)
    22d0:	01212c23          	sw	s2,24(sp)
    22d4:	01312e23          	sw	s3,28(sp)
    22d8:	03412023          	sw	s4,32(sp)
    22dc:	03512223          	sw	s5,36(sp)
    22e0:	03612423          	sw	s6,40(sp)
    22e4:	03712623          	sw	s7,44(sp)
    22e8:	03812823          	sw	s8,48(sp)
    22ec:	03912a23          	sw	s9,52(sp)
    22f0:	03a12c23          	sw	s10,56(sp)
    22f4:	03b12e23          	sw	s11,60(sp)
    22f8:	05c12023          	sw	t3,64(sp)
    22fc:	05d12223          	sw	t4,68(sp)
    2300:	05e12423          	sw	t5,72(sp)
    2304:	05f12623          	sw	t6,76(sp)
    2308:	04a12823          	sw	a0,80(sp)
    230c:	04b12a23          	sw	a1,84(sp)
    2310:	04c12c23          	sw	a2,88(sp)
    2314:	04d12e23          	sw	a3,92(sp)
    2318:	06e12023          	sw	a4,96(sp)
    231c:	06f12223          	sw	a5,100(sp)
    2320:	07012423          	sw	a6,104(sp)
    2324:	07112623          	sw	a7,108(sp)
    2328:	06312823          	sw	gp,112(sp)
    232c:	06412a23          	sw	tp,116(sp)
    2330:	f41ff0ef          	jal	2270 <on_timer_irq>
    2334:	07412203          	lw	tp,116(sp)
    2338:	07012183          	lw	gp,112(sp)
    233c:	06c12883          	lw	a7,108(sp)
    2340:	06812803          	lw	a6,104(sp)
    2344:	06412783          	lw	a5,100(sp)
    2348:	06012703          	lw	a4,96(sp)
    234c:	05c12683          	lw	a3,92(sp)
    2350:	05812603          	lw	a2,88(sp)
    2354:	05412583          	lw	a1,84(sp)
    2358:	05012503          	lw	a0,80(sp)
    235c:	04c12f83          	lw	t6,76(sp)
    2360:	04812f03          	lw	t5,72(sp)
    2364:	04412e83          	lw	t4,68(sp)
    2368:	04012e03          	lw	t3,64(sp)
    236c:	03c12d83          	lw	s11,60(sp)
    2370:	03812d03          	lw	s10,56(sp)
    2374:	03412c83          	lw	s9,52(sp)
    2378:	03012c03          	lw	s8,48(sp)
    237c:	02c12b83          	lw	s7,44(sp)
    2380:	02812b03          	lw	s6,40(sp)
    2384:	02412a83          	lw	s5,36(sp)
    2388:	02012a03          	lw	s4,32(sp)
    238c:	01c12983          	lw	s3,28(sp)
    2390:	01812903          	lw	s2,24(sp)
    2394:	01412483          	lw	s1,20(sp)
    2398:	01012403          	lw	s0,16(sp)
    239c:	00c12383          	lw	t2,12(sp)
    23a0:	00812303          	lw	t1,8(sp)
    23a4:	00412283          	lw	t0,4(sp)
    23a8:	00012083          	lw	ra,0(sp)
    23ac:	08010113          	addi	sp,sp,128
    23b0:	30200073          	mret
    23b4:	00000013          	nop

000023b8 <init_mtvec>:
    23b8:	fe010113          	addi	sp,sp,-32
    23bc:	00112e23          	sw	ra,28(sp)
    23c0:	00812c23          	sw	s0,24(sp)
    23c4:	02010413          	addi	s0,sp,32
    23c8:	000027b7          	lui	a5,0x2
    23cc:	2b478793          	addi	a5,a5,692 # 22b4 <trap_handler>
    23d0:	ffc7f793          	andi	a5,a5,-4
    23d4:	fef42623          	sw	a5,-20(s0)
    23d8:	fec42503          	lw	a0,-20(s0)
    23dc:	e31ff0ef          	jal	220c <csr_write_mtvec>
    23e0:	00000013          	nop
    23e4:	01c12083          	lw	ra,28(sp)
    23e8:	01812403          	lw	s0,24(sp)
    23ec:	02010113          	addi	sp,sp,32
    23f0:	00008067          	ret

000023f4 <delay>:
    23f4:	fe010113          	addi	sp,sp,-32
    23f8:	00112e23          	sw	ra,28(sp)
    23fc:	00812c23          	sw	s0,24(sp)
    2400:	02010413          	addi	s0,sp,32
    2404:	fe042623          	sw	zero,-20(s0)
    2408:	0100006f          	j	2418 <delay+0x24>
    240c:	fec42783          	lw	a5,-20(s0)
    2410:	00178793          	addi	a5,a5,1
    2414:	fef42623          	sw	a5,-20(s0)
    2418:	fec42703          	lw	a4,-20(s0)
    241c:	000187b7          	lui	a5,0x18
    2420:	69f78793          	addi	a5,a5,1695 # 1869f <_stack_start+0xf69f>
    2424:	fee7f4e3          	bgeu	a5,a4,240c <delay+0x18>
    2428:	00000013          	nop
    242c:	00000013          	nop
    2430:	01c12083          	lw	ra,28(sp)
    2434:	01812403          	lw	s0,24(sp)
    2438:	02010113          	addi	sp,sp,32
    243c:	00008067          	ret

00002440 <main>:
    2440:	ff010113          	addi	sp,sp,-16
    2444:	00112623          	sw	ra,12(sp)
    2448:	00812423          	sw	s0,8(sp)
    244c:	01010413          	addi	s0,sp,16
    2450:	f69ff0ef          	jal	23b8 <init_mtvec>
    2454:	de9ff0ef          	jal	223c <enable_timer_interrupts>
    2458:	00a00513          	li	a0,10
    245c:	00000593          	li	a1,0
    2460:	cedff0ef          	jal	214c <set_timer>
    2464:	f91ff0ef          	jal	23f4 <delay>
    2468:	ffdff06f          	j	2464 <main+0x24>

0000246c <_start>:
    246c:	00007117          	auipc	sp,0x7
    2470:	b9410113          	addi	sp,sp,-1132 # 9000 <_stack_start>
    2474:	fcdff0ef          	jal	2440 <main>
    2478:	ff5ff06f          	j	246c <_start>

Disassembly of section .comment:

00000000 <.comment>:
   0:	3a434347          	.insn	4, 0x3a434347
   4:	2820                	.insn	2, 0x2820
   6:	36343067          	.insn	4, 0x36343067
   a:	3639                	.insn	2, 0x3639
   c:	6664                	.insn	2, 0x6664
   e:	3930                	.insn	2, 0x3930
  10:	3336                	.insn	2, 0x3336
  12:	2029                	.insn	2, 0x2029
  14:	3431                	.insn	2, 0x3431
  16:	322e                	.insn	2, 0x322e
  18:	302e                	.insn	2, 0x302e
	...

Disassembly of section .riscv.attributes:

00000000 <.riscv.attributes>:
   0:	3641                	.insn	2, 0x3641
   2:	0000                	.insn	2, 0x
   4:	7200                	.insn	2, 0x7200
   6:	7369                	.insn	2, 0x7369
   8:	01007663          	bgeu	zero,a6,14 <__DYNAMIC+0x14>
   c:	002c                	.insn	2, 0x002c
   e:	0000                	.insn	2, 0x
  10:	1004                	.insn	2, 0x1004
  12:	7205                	.insn	2, 0x7205
  14:	3376                	.insn	2, 0x3376
  16:	6932                	.insn	2, 0x6932
  18:	7032                	.insn	2, 0x7032
  1a:	5f31                	.insn	2, 0x5f31
  1c:	326d                	.insn	2, 0x326d
  1e:	3070                	.insn	2, 0x3070
  20:	7a5f 6369 7273      	.insn	6, 0x727363697a5f
  26:	7032                	.insn	2, 0x7032
  28:	5f30                	.insn	2, 0x5f30
  2a:	6d7a                	.insn	2, 0x6d7a
  2c:	756d                	.insn	2, 0x756d
  2e:	316c                	.insn	2, 0x316c
  30:	3070                	.insn	2, 0x3070
  32:	0800                	.insn	2, 0x0800
  34:	0a01                	.insn	2, 0x0a01
  36:	Address 0x36 is out of bounds.

