
program.elf:     file format elf32-littleriscv


Disassembly of section .text:

00002000 <_start>:
    2000:	00007117          	auipc	sp,0x7
    2004:	00010113          	mv	sp,sp
    2008:	0c8000ef          	jal	20d0 <runtime_init>
    200c:	ff5ff06f          	j	2000 <_start>

00002010 <write_mmio>:
    2010:	fd010113          	addi	sp,sp,-48 # 8fd0 <_end+0x1fd0>
    2014:	02112623          	sw	ra,44(sp)
    2018:	02812423          	sw	s0,40(sp)
    201c:	03010413          	addi	s0,sp,48
    2020:	fca42e23          	sw	a0,-36(s0)
    2024:	fcb42c23          	sw	a1,-40(s0)
    2028:	fdc42783          	lw	a5,-36(s0)
    202c:	fef42623          	sw	a5,-20(s0)
    2030:	fec42783          	lw	a5,-20(s0)
    2034:	fd842703          	lw	a4,-40(s0)
    2038:	00e7a023          	sw	a4,0(a5)
    203c:	00000013          	nop
    2040:	02c12083          	lw	ra,44(sp)
    2044:	02812403          	lw	s0,40(sp)
    2048:	03010113          	addi	sp,sp,48
    204c:	00008067          	ret

00002050 <write_to_peripheral>:
    2050:	fd010113          	addi	sp,sp,-48
    2054:	02112623          	sw	ra,44(sp)
    2058:	02812423          	sw	s0,40(sp)
    205c:	03010413          	addi	s0,sp,48
    2060:	fca42e23          	sw	a0,-36(s0)
    2064:	fcb42c23          	sw	a1,-40(s0)
    2068:	fdc42783          	lw	a5,-36(s0)
    206c:	fef42623          	sw	a5,-20(s0)
    2070:	fec42783          	lw	a5,-20(s0)
    2074:	fd842703          	lw	a4,-40(s0)
    2078:	00e7a023          	sw	a4,0(a5)
    207c:	00000013          	nop
    2080:	02c12083          	lw	ra,44(sp)
    2084:	02812403          	lw	s0,40(sp)
    2088:	03010113          	addi	sp,sp,48
    208c:	00008067          	ret

00002090 <fail>:
    2090:	fe010113          	addi	sp,sp,-32
    2094:	00112e23          	sw	ra,28(sp)
    2098:	00812c23          	sw	s0,24(sp)
    209c:	02010413          	addi	s0,sp,32
    20a0:	fea42623          	sw	a0,-20(s0)
    20a4:	fec42783          	lw	a5,-20(s0)
    20a8:	00078593          	mv	a1,a5
    20ac:	000057b7          	lui	a5,0x5
    20b0:	80878513          	addi	a0,a5,-2040 # 4808 <_etext+0x25b8>
    20b4:	f5dff0ef          	jal	2010 <write_mmio>
    20b8:	0badf7b7          	lui	a5,0xbadf
    20bc:	00d78593          	addi	a1,a5,13 # badf00d <_stack_start+0xbad600d>
    20c0:	000057b7          	lui	a5,0x5
    20c4:	80078513          	addi	a0,a5,-2048 # 4800 <_etext+0x25b0>
    20c8:	f49ff0ef          	jal	2010 <write_mmio>
    20cc:	0000006f          	j	20cc <fail+0x3c>

000020d0 <runtime_init>:
    20d0:	fe010113          	addi	sp,sp,-32
    20d4:	00112e23          	sw	ra,28(sp)
    20d8:	00812c23          	sw	s0,24(sp)
    20dc:	02010413          	addi	s0,sp,32
    20e0:	0e0000ef          	jal	21c0 <main>
    20e4:	fea42623          	sw	a0,-20(s0)
    20e8:	deadc7b7          	lui	a5,0xdeadc
    20ec:	eef78593          	addi	a1,a5,-273 # deadbeef <_stack_start+0xdead2eef>
    20f0:	000057b7          	lui	a5,0x5
    20f4:	80078513          	addi	a0,a5,-2048 # 4800 <_etext+0x25b0>
    20f8:	f19ff0ef          	jal	2010 <write_mmio>
    20fc:	0000006f          	j	20fc <runtime_init+0x2c>

00002100 <write_mmio>:
    2100:	fd010113          	addi	sp,sp,-48
    2104:	02112623          	sw	ra,44(sp)
    2108:	02812423          	sw	s0,40(sp)
    210c:	03010413          	addi	s0,sp,48
    2110:	fca42e23          	sw	a0,-36(s0)
    2114:	fcb42c23          	sw	a1,-40(s0)
    2118:	fdc42783          	lw	a5,-36(s0)
    211c:	fef42623          	sw	a5,-20(s0)
    2120:	fec42783          	lw	a5,-20(s0)
    2124:	fd842703          	lw	a4,-40(s0)
    2128:	00e7a023          	sw	a4,0(a5)
    212c:	00000013          	nop
    2130:	02c12083          	lw	ra,44(sp)
    2134:	02812403          	lw	s0,40(sp)
    2138:	03010113          	addi	sp,sp,48
    213c:	00008067          	ret

00002140 <write_to_peripheral>:
    2140:	fd010113          	addi	sp,sp,-48
    2144:	02112623          	sw	ra,44(sp)
    2148:	02812423          	sw	s0,40(sp)
    214c:	03010413          	addi	s0,sp,48
    2150:	fca42e23          	sw	a0,-36(s0)
    2154:	fcb42c23          	sw	a1,-40(s0)
    2158:	fdc42783          	lw	a5,-36(s0)
    215c:	fef42623          	sw	a5,-20(s0)
    2160:	fec42783          	lw	a5,-20(s0)
    2164:	fd842703          	lw	a4,-40(s0)
    2168:	00e7a023          	sw	a4,0(a5)
    216c:	00000013          	nop
    2170:	02c12083          	lw	ra,44(sp)
    2174:	02812403          	lw	s0,40(sp)
    2178:	03010113          	addi	sp,sp,48
    217c:	00008067          	ret

00002180 <fail>:
    2180:	fe010113          	addi	sp,sp,-32
    2184:	00112e23          	sw	ra,28(sp)
    2188:	00812c23          	sw	s0,24(sp)
    218c:	02010413          	addi	s0,sp,32
    2190:	fea42623          	sw	a0,-20(s0)
    2194:	fec42783          	lw	a5,-20(s0)
    2198:	00078593          	mv	a1,a5
    219c:	000057b7          	lui	a5,0x5
    21a0:	80878513          	addi	a0,a5,-2040 # 4808 <_etext+0x25b8>
    21a4:	f5dff0ef          	jal	2100 <write_mmio>
    21a8:	0badf7b7          	lui	a5,0xbadf
    21ac:	00d78593          	addi	a1,a5,13 # badf00d <_stack_start+0xbad600d>
    21b0:	000057b7          	lui	a5,0x5
    21b4:	80078513          	addi	a0,a5,-2048 # 4800 <_etext+0x25b0>
    21b8:	f49ff0ef          	jal	2100 <write_mmio>
    21bc:	0000006f          	j	21bc <fail+0x3c>

000021c0 <main>:
    21c0:	fe010113          	addi	sp,sp,-32
    21c4:	00112e23          	sw	ra,28(sp)
    21c8:	00812c23          	sw	s0,24(sp)
    21cc:	02010413          	addi	s0,sp,32
    21d0:	000057b7          	lui	a5,0x5
    21d4:	10078793          	addi	a5,a5,256 # 5100 <_bss_end+0x100>
    21d8:	fef42623          	sw	a5,-20(s0)
    21dc:	3f8007b7          	lui	a5,0x3f800
    21e0:	fef42423          	sw	a5,-24(s0)
    21e4:	fec42783          	lw	a5,-20(s0)
    21e8:	fe842703          	lw	a4,-24(s0)
    21ec:	00e7a023          	sw	a4,0(a5) # 3f800000 <_stack_start+0x3f7f7000>
    21f0:	fec42783          	lw	a5,-20(s0)
    21f4:	0007a787          	flw	fa5,0(a5)
    21f8:	fef42027          	fsw	fa5,-32(s0)
    21fc:	fe042787          	flw	fa5,-32(s0)
    2200:	fec42783          	lw	a5,-20(s0)
    2204:	00f7a027          	fsw	fa5,0(a5)
    2208:	fec42783          	lw	a5,-20(s0)
    220c:	0007a783          	lw	a5,0(a5)
    2210:	fef42223          	sw	a5,-28(s0)
    2214:	fe442583          	lw	a1,-28(s0)
    2218:	000057b7          	lui	a5,0x5
    221c:	80878513          	addi	a0,a5,-2040 # 4808 <_etext+0x25b8>
    2220:	ee1ff0ef          	jal	2100 <write_mmio>
    2224:	fe442703          	lw	a4,-28(s0)
    2228:	fe842783          	lw	a5,-24(s0)
    222c:	00f70663          	beq	a4,a5,2238 <main+0x78>
    2230:	00100513          	li	a0,1
    2234:	f4dff0ef          	jal	2180 <fail>
    2238:	00000793          	li	a5,0
    223c:	00078513          	mv	a0,a5
    2240:	01c12083          	lw	ra,28(sp)
    2244:	01812403          	lw	s0,24(sp)
    2248:	02010113          	addi	sp,sp,32
    224c:	00008067          	ret

Disassembly of section .riscv.attributes:

00000000 <.riscv.attributes>:
   0:	3741                	.insn	2, 0x3741
   2:	0000                	.insn	2, 0x
   4:	7200                	.insn	2, 0x7200
   6:	7369                	.insn	2, 0x7369
   8:	01007663          	bgeu	zero,a6,14 <__DYNAMIC+0x14>
   c:	002d                	.insn	2, 0x002d
   e:	0000                	.insn	2, 0x
  10:	1004                	.insn	2, 0x1004
  12:	7205                	.insn	2, 0x7205
  14:	3376                	.insn	2, 0x3376
  16:	6932                	.insn	2, 0x6932
  18:	7032                	.insn	2, 0x7032
  1a:	5f31                	.insn	2, 0x5f31
  1c:	326d                	.insn	2, 0x326d
  1e:	3070                	.insn	2, 0x3070
  20:	665f 7032 5f32      	.insn	6, 0x5f327032665f
  26:	697a                	.insn	2, 0x697a
  28:	32727363          	bgeu	tp,t2,34e <__DYNAMIC+0x34e>
  2c:	3070                	.insn	2, 0x3070
  2e:	7a5f 6d6d 6c75      	.insn	6, 0x6c756d6d7a5f
  34:	7031                	.insn	2, 0x7031
  36:	0030                	.insn	2, 0x0030

Disassembly of section .comment:

00000000 <.comment>:
   0:	3a434347          	.insn	4, 0x3a434347
   4:	2820                	.insn	2, 0x2820
   6:	36343067          	.insn	4, 0x36343067
   a:	3639                	.insn	2, 0x3639
   c:	6664                	.insn	2, 0x6664
   e:	3930                	.insn	2, 0x3930
  10:	3336                	.insn	2, 0x3336
  12:	2029                	.insn	2, 0x2029
  14:	3431                	.insn	2, 0x3431
  16:	322e                	.insn	2, 0x322e
  18:	302e                	.insn	2, 0x302e
	...
