
program.elf:     file format elf32-littleriscv


Disassembly of section .text:

00002000 <write_mmio>:
    2000:	fd010113          	addi	sp,sp,-48
    2004:	02112623          	sw	ra,44(sp)
    2008:	02812423          	sw	s0,40(sp)
    200c:	03010413          	addi	s0,sp,48
    2010:	fca42e23          	sw	a0,-36(s0)
    2014:	fcb42c23          	sw	a1,-40(s0)
    2018:	fdc42783          	lw	a5,-36(s0)
    201c:	fef42623          	sw	a5,-20(s0)
    2020:	fec42783          	lw	a5,-20(s0)
    2024:	fd842703          	lw	a4,-40(s0)
    2028:	00e7a023          	sw	a4,0(a5)
    202c:	00000013          	nop
    2030:	02c12083          	lw	ra,44(sp)
    2034:	02812403          	lw	s0,40(sp)
    2038:	03010113          	addi	sp,sp,48
    203c:	00008067          	ret

00002040 <fail>:
    2040:	fe010113          	addi	sp,sp,-32
    2044:	00112e23          	sw	ra,28(sp)
    2048:	00812c23          	sw	s0,24(sp)
    204c:	02010413          	addi	s0,sp,32
    2050:	fea42623          	sw	a0,-20(s0)
    2054:	fec42783          	lw	a5,-20(s0)
    2058:	00078593          	mv	a1,a5
    205c:	000027b7          	lui	a5,0x2
    2060:	60478513          	addi	a0,a5,1540 # 2604 <_etext+0x41c>
    2064:	f9dff0ef          	jal	2000 <write_mmio>
    2068:	0badf7b7          	lui	a5,0xbadf
    206c:	00d78593          	addi	a1,a5,13 # badf00d <_stack_start+0xbadb00d>
    2070:	000027b7          	lui	a5,0x2
    2074:	60078513          	addi	a0,a5,1536 # 2600 <_etext+0x418>
    2078:	f89ff0ef          	jal	2000 <write_mmio>
    207c:	0000006f          	j	207c <fail+0x3c>

00002080 <main>:
    2080:	fb010113          	addi	sp,sp,-80
    2084:	04112623          	sw	ra,76(sp)
    2088:	04812423          	sw	s0,72(sp)
    208c:	05010413          	addi	s0,sp,80
    2090:	f8000793          	li	a5,-128
    2094:	fef407a3          	sb	a5,-17(s0)
    2098:	fef40783          	lb	a5,-17(s0)
    209c:	fef42423          	sw	a5,-24(s0)
    20a0:	fe842703          	lw	a4,-24(s0)
    20a4:	f8000793          	li	a5,-128
    20a8:	00f70663          	beq	a4,a5,20b4 <main+0x34>
    20ac:	01400513          	li	a0,20
    20b0:	f91ff0ef          	jal	2040 <fail>
    20b4:	ffff87b7          	lui	a5,0xffff8
    20b8:	fef41323          	sh	a5,-26(s0)
    20bc:	fe641783          	lh	a5,-26(s0)
    20c0:	fef42023          	sw	a5,-32(s0)
    20c4:	fe042703          	lw	a4,-32(s0)
    20c8:	ffff87b7          	lui	a5,0xffff8
    20cc:	00f70663          	beq	a4,a5,20d8 <main+0x58>
    20d0:	01500513          	li	a0,21
    20d4:	f6dff0ef          	jal	2040 <fail>
    20d8:	deadc7b7          	lui	a5,0xdeadc
    20dc:	eef78793          	addi	a5,a5,-273 # deadbeef <_stack_start+0xdead7eef>
    20e0:	fcf42e23          	sw	a5,-36(s0)
    20e4:	fdc42703          	lw	a4,-36(s0)
    20e8:	deadc7b7          	lui	a5,0xdeadc
    20ec:	eef78793          	addi	a5,a5,-273 # deadbeef <_stack_start+0xdead7eef>
    20f0:	00f70663          	beq	a4,a5,20fc <main+0x7c>
    20f4:	01600513          	li	a0,22
    20f8:	f49ff0ef          	jal	2040 <fail>
    20fc:	f8000793          	li	a5,-128
    2100:	fcf40da3          	sb	a5,-37(s0)
    2104:	fdb44783          	lbu	a5,-37(s0)
    2108:	fcf42a23          	sw	a5,-44(s0)
    210c:	fd442703          	lw	a4,-44(s0)
    2110:	08000793          	li	a5,128
    2114:	00f70663          	beq	a4,a5,2120 <main+0xa0>
    2118:	01700513          	li	a0,23
    211c:	f25ff0ef          	jal	2040 <fail>
    2120:	ffff87b7          	lui	a5,0xffff8
    2124:	fcf41923          	sh	a5,-46(s0)
    2128:	fd245783          	lhu	a5,-46(s0)
    212c:	fcf42623          	sw	a5,-52(s0)
    2130:	fcc42703          	lw	a4,-52(s0)
    2134:	000087b7          	lui	a5,0x8
    2138:	00f70663          	beq	a4,a5,2144 <main+0xc4>
    213c:	01800513          	li	a0,24
    2140:	f01ff0ef          	jal	2040 <fail>
    2144:	05500793          	li	a5,85
    2148:	fcf405a3          	sb	a5,-53(s0)
    214c:	fcb44783          	lbu	a5,-53(s0)
    2150:	fcf40523          	sb	a5,-54(s0)
    2154:	fca44703          	lbu	a4,-54(s0)
    2158:	05500793          	li	a5,85
    215c:	00f70663          	beq	a4,a5,2168 <main+0xe8>
    2160:	01900513          	li	a0,25
    2164:	eddff0ef          	jal	2040 <fail>
    2168:	ffffb7b7          	lui	a5,0xffffb
    216c:	a5578793          	addi	a5,a5,-1451 # ffffaa55 <_stack_start+0xffff6a55>
    2170:	fcf41423          	sh	a5,-56(s0)
    2174:	fc845783          	lhu	a5,-56(s0)
    2178:	fcf41323          	sh	a5,-58(s0)
    217c:	fc645703          	lhu	a4,-58(s0)
    2180:	0000b7b7          	lui	a5,0xb
    2184:	a5578793          	addi	a5,a5,-1451 # aa55 <_stack_start+0x6a55>
    2188:	00f70663          	beq	a4,a5,2194 <main+0x114>
    218c:	01a00513          	li	a0,26
    2190:	eb1ff0ef          	jal	2040 <fail>
    2194:	deadc7b7          	lui	a5,0xdeadc
    2198:	eef78793          	addi	a5,a5,-273 # deadbeef <_stack_start+0xdead7eef>
    219c:	fcf42023          	sw	a5,-64(s0)
    21a0:	fc042783          	lw	a5,-64(s0)
    21a4:	faf42e23          	sw	a5,-68(s0)
    21a8:	fbc42703          	lw	a4,-68(s0)
    21ac:	deadc7b7          	lui	a5,0xdeadc
    21b0:	eef78793          	addi	a5,a5,-273 # deadbeef <_stack_start+0xdead7eef>
    21b4:	00f70663          	beq	a4,a5,21c0 <main+0x140>
    21b8:	01b00513          	li	a0,27
    21bc:	e85ff0ef          	jal	2040 <fail>
    21c0:	deadc7b7          	lui	a5,0xdeadc
    21c4:	eef78593          	addi	a1,a5,-273 # deadbeef <_stack_start+0xdead7eef>
    21c8:	000027b7          	lui	a5,0x2
    21cc:	60078513          	addi	a0,a5,1536 # 2600 <_etext+0x418>
    21d0:	e31ff0ef          	jal	2000 <write_mmio>
    21d4:	0000006f          	j	21d4 <main+0x154>

000021d8 <_start>:
    21d8:	00002117          	auipc	sp,0x2
    21dc:	e2810113          	addi	sp,sp,-472 # 4000 <_stack_start>
    21e0:	ea1ff0ef          	jal	2080 <main>
    21e4:	ff5ff06f          	j	21d8 <_start>

Disassembly of section .comment:

00000000 <.comment>:
   0:	3a434347          	.insn	4, 0x3a434347
   4:	2820                	.insn	2, 0x2820
   6:	36343067          	.insn	4, 0x36343067
   a:	3639                	.insn	2, 0x3639
   c:	6664                	.insn	2, 0x6664
   e:	3930                	.insn	2, 0x3930
  10:	3336                	.insn	2, 0x3336
  12:	2029                	.insn	2, 0x2029
  14:	3431                	.insn	2, 0x3431
  16:	322e                	.insn	2, 0x322e
  18:	302e                	.insn	2, 0x302e
	...

Disassembly of section .riscv.attributes:

00000000 <.riscv.attributes>:
   0:	3241                	.insn	2, 0x3241
   2:	0000                	.insn	2, 0x
   4:	7200                	.insn	2, 0x7200
   6:	7369                	.insn	2, 0x7369
   8:	01007663          	bgeu	zero,a6,14 <__DYNAMIC+0x14>
   c:	0028                	.insn	2, 0x0028
   e:	0000                	.insn	2, 0x
  10:	1004                	.insn	2, 0x1004
  12:	7205                	.insn	2, 0x7205
  14:	3376                	.insn	2, 0x3376
  16:	6932                	.insn	2, 0x6932
  18:	7032                	.insn	2, 0x7032
  1a:	5f31                	.insn	2, 0x5f31
  1c:	326d                	.insn	2, 0x326d
  1e:	3070                	.insn	2, 0x3070
  20:	7a5f 6369 7273      	.insn	6, 0x727363697a5f
  26:	7032                	.insn	2, 0x7032
  28:	5f30                	.insn	2, 0x5f30
  2a:	6d7a                	.insn	2, 0x6d7a
  2c:	756d                	.insn	2, 0x756d
  2e:	316c                	.insn	2, 0x316c
  30:	3070                	.insn	2, 0x3070
	...
