
program.elf:     file format elf32-littleriscv


Disassembly of section .text:

00002000 <write_mmio>:
    2000:	fd010113          	addi	sp,sp,-48
    2004:	02112623          	sw	ra,44(sp)
    2008:	02812423          	sw	s0,40(sp)
    200c:	03010413          	addi	s0,sp,48
    2010:	fca42e23          	sw	a0,-36(s0)
    2014:	fcb42c23          	sw	a1,-40(s0)
    2018:	fdc42783          	lw	a5,-36(s0)
    201c:	fef42623          	sw	a5,-20(s0)
    2020:	fec42783          	lw	a5,-20(s0)
    2024:	fd842703          	lw	a4,-40(s0)
    2028:	00e7a023          	sw	a4,0(a5)
    202c:	00000013          	nop
    2030:	02c12083          	lw	ra,44(sp)
    2034:	02812403          	lw	s0,40(sp)
    2038:	03010113          	addi	sp,sp,48
    203c:	00008067          	ret

00002040 <main>:
    2040:	fe010113          	addi	sp,sp,-32
    2044:	00112e23          	sw	ra,28(sp)
    2048:	00812c23          	sw	s0,24(sp)
    204c:	02010413          	addi	s0,sp,32
    2050:	deadc7b7          	lui	a5,0xdeadc
    2054:	eef78793          	addi	a5,a5,-273 # deadbeef <_stack_start+0xdead7eef>
    2058:	fef42023          	sw	a5,-32(s0)
    205c:	000027b7          	lui	a5,0x2
    2060:	60878793          	addi	a5,a5,1544 # 2608 <_etext+0x460>
    2064:	fef42423          	sw	a5,-24(s0)
    2068:	fe042623          	sw	zero,-20(s0)
    206c:	0840006f          	j	20f0 <main+0xb0>
    2070:	fec42783          	lw	a5,-20(s0)
    2074:	fe842703          	lw	a4,-24(s0)
    2078:	00f707b3          	add	a5,a4,a5
    207c:	fec42703          	lw	a4,-20(s0)
    2080:	ff070713          	addi	a4,a4,-16
    2084:	00870733          	add	a4,a4,s0
    2088:	ff074703          	lbu	a4,-16(a4)
    208c:	00e78023          	sb	a4,0(a5)
    2090:	fec42783          	lw	a5,-20(s0)
    2094:	fe842703          	lw	a4,-24(s0)
    2098:	00f707b3          	add	a5,a4,a5
    209c:	0007c783          	lbu	a5,0(a5)
    20a0:	0ff7f713          	zext.b	a4,a5
    20a4:	fec42783          	lw	a5,-20(s0)
    20a8:	ff078793          	addi	a5,a5,-16
    20ac:	008787b3          	add	a5,a5,s0
    20b0:	ff07c783          	lbu	a5,-16(a5)
    20b4:	02f70863          	beq	a4,a5,20e4 <main+0xa4>
    20b8:	fec42783          	lw	a5,-20(s0)
    20bc:	00078593          	mv	a1,a5
    20c0:	000027b7          	lui	a5,0x2
    20c4:	60478513          	addi	a0,a5,1540 # 2604 <_etext+0x45c>
    20c8:	f39ff0ef          	jal	2000 <write_mmio>
    20cc:	0badf7b7          	lui	a5,0xbadf
    20d0:	00d78593          	addi	a1,a5,13 # badf00d <_stack_start+0xbadb00d>
    20d4:	000027b7          	lui	a5,0x2
    20d8:	60078513          	addi	a0,a5,1536 # 2600 <_etext+0x458>
    20dc:	f25ff0ef          	jal	2000 <write_mmio>
    20e0:	0000006f          	j	20e0 <main+0xa0>
    20e4:	fec42783          	lw	a5,-20(s0)
    20e8:	00178793          	addi	a5,a5,1
    20ec:	fef42623          	sw	a5,-20(s0)
    20f0:	fec42703          	lw	a4,-20(s0)
    20f4:	00300793          	li	a5,3
    20f8:	f6e7dce3          	bge	a5,a4,2070 <main+0x30>
    20fc:	fe842783          	lw	a5,-24(s0)
    2100:	0007c783          	lbu	a5,0(a5)
    2104:	0ff7f793          	zext.b	a5,a5
    2108:	00078713          	mv	a4,a5
    210c:	fe842783          	lw	a5,-24(s0)
    2110:	00178793          	addi	a5,a5,1
    2114:	0007c783          	lbu	a5,0(a5)
    2118:	0ff7f793          	zext.b	a5,a5
    211c:	00879793          	slli	a5,a5,0x8
    2120:	00f76733          	or	a4,a4,a5
    2124:	fe842783          	lw	a5,-24(s0)
    2128:	00278793          	addi	a5,a5,2
    212c:	0007c783          	lbu	a5,0(a5)
    2130:	0ff7f793          	zext.b	a5,a5
    2134:	01079793          	slli	a5,a5,0x10
    2138:	00f76733          	or	a4,a4,a5
    213c:	fe842783          	lw	a5,-24(s0)
    2140:	00378793          	addi	a5,a5,3
    2144:	0007c783          	lbu	a5,0(a5)
    2148:	0ff7f793          	zext.b	a5,a5
    214c:	01879793          	slli	a5,a5,0x18
    2150:	00f767b3          	or	a5,a4,a5
    2154:	fef42223          	sw	a5,-28(s0)
    2158:	fe442703          	lw	a4,-28(s0)
    215c:	deadc7b7          	lui	a5,0xdeadc
    2160:	eef78793          	addi	a5,a5,-273 # deadbeef <_stack_start+0xdead7eef>
    2164:	00f71e63          	bne	a4,a5,2180 <main+0x140>
    2168:	deadc7b7          	lui	a5,0xdeadc
    216c:	eef78593          	addi	a1,a5,-273 # deadbeef <_stack_start+0xdead7eef>
    2170:	000027b7          	lui	a5,0x2
    2174:	60078513          	addi	a0,a5,1536 # 2600 <_etext+0x458>
    2178:	e89ff0ef          	jal	2000 <write_mmio>
    217c:	0180006f          	j	2194 <main+0x154>
    2180:	0badf7b7          	lui	a5,0xbadf
    2184:	00d78593          	addi	a1,a5,13 # badf00d <_stack_start+0xbadb00d>
    2188:	000027b7          	lui	a5,0x2
    218c:	60078513          	addi	a0,a5,1536 # 2600 <_etext+0x458>
    2190:	e71ff0ef          	jal	2000 <write_mmio>
    2194:	0000006f          	j	2194 <main+0x154>

00002198 <_start>:
    2198:	00002117          	auipc	sp,0x2
    219c:	e6810113          	addi	sp,sp,-408 # 4000 <_stack_start>
    21a0:	ea1ff0ef          	jal	2040 <main>
    21a4:	ff5ff06f          	j	2198 <_start>

Disassembly of section .comment:

00000000 <.comment>:
   0:	3a434347          	.insn	4, 0x3a434347
   4:	2820                	.insn	2, 0x2820
   6:	36343067          	.insn	4, 0x36343067
   a:	3639                	.insn	2, 0x3639
   c:	6664                	.insn	2, 0x6664
   e:	3930                	.insn	2, 0x3930
  10:	3336                	.insn	2, 0x3336
  12:	2029                	.insn	2, 0x2029
  14:	3431                	.insn	2, 0x3431
  16:	322e                	.insn	2, 0x322e
  18:	302e                	.insn	2, 0x302e
	...

Disassembly of section .riscv.attributes:

00000000 <.riscv.attributes>:
   0:	3241                	.insn	2, 0x3241
   2:	0000                	.insn	2, 0x
   4:	7200                	.insn	2, 0x7200
   6:	7369                	.insn	2, 0x7369
   8:	01007663          	bgeu	zero,a6,14 <__DYNAMIC+0x14>
   c:	0028                	.insn	2, 0x0028
   e:	0000                	.insn	2, 0x
  10:	1004                	.insn	2, 0x1004
  12:	7205                	.insn	2, 0x7205
  14:	3376                	.insn	2, 0x3376
  16:	6932                	.insn	2, 0x6932
  18:	7032                	.insn	2, 0x7032
  1a:	5f31                	.insn	2, 0x5f31
  1c:	326d                	.insn	2, 0x326d
  1e:	3070                	.insn	2, 0x3070
  20:	7a5f 6369 7273      	.insn	6, 0x727363697a5f
  26:	7032                	.insn	2, 0x7032
  28:	5f30                	.insn	2, 0x5f30
  2a:	6d7a                	.insn	2, 0x6d7a
  2c:	756d                	.insn	2, 0x756d
  2e:	316c                	.insn	2, 0x316c
  30:	3070                	.insn	2, 0x3070
	...
