
program.elf:     file format elf32-littleriscv


Disassembly of section .text:

00002000 <write_to_peripheral>:
    2000:	fd010113          	addi	sp,sp,-48
    2004:	02112623          	sw	ra,44(sp)
    2008:	02812423          	sw	s0,40(sp)
    200c:	03010413          	addi	s0,sp,48
    2010:	fca42e23          	sw	a0,-36(s0)
    2014:	fcb42c23          	sw	a1,-40(s0)
    2018:	fdc42783          	lw	a5,-36(s0)
    201c:	fef42623          	sw	a5,-20(s0)
    2020:	fec42783          	lw	a5,-20(s0)
    2024:	fd842703          	lw	a4,-40(s0)
    2028:	00e7a023          	sw	a4,0(a5)
    202c:	00000013          	nop
    2030:	02c12083          	lw	ra,44(sp)
    2034:	02812403          	lw	s0,40(sp)
    2038:	03010113          	addi	sp,sp,48
    203c:	00008067          	ret

00002040 <matrix_multiply>:
    2040:	fc010113          	addi	sp,sp,-64
    2044:	02112e23          	sw	ra,60(sp)
    2048:	02812c23          	sw	s0,56(sp)
    204c:	03212a23          	sw	s2,52(sp)
    2050:	03312823          	sw	s3,48(sp)
    2054:	04010413          	addi	s0,sp,64
    2058:	fca42623          	sw	a0,-52(s0)
    205c:	fcb42423          	sw	a1,-56(s0)
    2060:	fcc42223          	sw	a2,-60(s0)
    2064:	fcd42023          	sw	a3,-64(s0)
    2068:	fcc42603          	lw	a2,-52(s0)
    206c:	fff60693          	addi	a3,a2,-1
    2070:	fed42023          	sw	a3,-32(s0)
    2074:	00060693          	mv	a3,a2
    2078:	00068913          	mv	s2,a3
    207c:	00000993          	li	s3,0
    2080:	01b95693          	srli	a3,s2,0x1b
    2084:	00599393          	slli	t2,s3,0x5
    2088:	0076e3b3          	or	t2,a3,t2
    208c:	00591313          	slli	t1,s2,0x5
    2090:	fcc42583          	lw	a1,-52(s0)
    2094:	fff58693          	addi	a3,a1,-1
    2098:	fcd42e23          	sw	a3,-36(s0)
    209c:	00058693          	mv	a3,a1
    20a0:	00068f13          	mv	t5,a3
    20a4:	00000f93          	li	t6,0
    20a8:	01bf5693          	srli	a3,t5,0x1b
    20ac:	005f9893          	slli	a7,t6,0x5
    20b0:	0116e8b3          	or	a7,a3,a7
    20b4:	005f1813          	slli	a6,t5,0x5
    20b8:	fcc42683          	lw	a3,-52(s0)
    20bc:	fff68513          	addi	a0,a3,-1
    20c0:	fca42c23          	sw	a0,-40(s0)
    20c4:	00068513          	mv	a0,a3
    20c8:	00050e13          	mv	t3,a0
    20cc:	00000e93          	li	t4,0
    20d0:	01be5513          	srli	a0,t3,0x1b
    20d4:	005e9793          	slli	a5,t4,0x5
    20d8:	00f567b3          	or	a5,a0,a5
    20dc:	005e1713          	slli	a4,t3,0x5
    20e0:	fe042623          	sw	zero,-20(s0)
    20e4:	1200006f          	j	2204 <matrix_multiply+0x1c4>
    20e8:	fe042423          	sw	zero,-24(s0)
    20ec:	1000006f          	j	21ec <matrix_multiply+0x1ac>
    20f0:	00068713          	mv	a4,a3
    20f4:	fec42783          	lw	a5,-20(s0)
    20f8:	02f707b3          	mul	a5,a4,a5
    20fc:	00279793          	slli	a5,a5,0x2
    2100:	fc042703          	lw	a4,-64(s0)
    2104:	00f70733          	add	a4,a4,a5
    2108:	fe842783          	lw	a5,-24(s0)
    210c:	00279793          	slli	a5,a5,0x2
    2110:	00f707b3          	add	a5,a4,a5
    2114:	0007a023          	sw	zero,0(a5)
    2118:	fe042223          	sw	zero,-28(s0)
    211c:	0b80006f          	j	21d4 <matrix_multiply+0x194>
    2120:	00060713          	mv	a4,a2
    2124:	fec42783          	lw	a5,-20(s0)
    2128:	02f707b3          	mul	a5,a4,a5
    212c:	00279793          	slli	a5,a5,0x2
    2130:	fc842703          	lw	a4,-56(s0)
    2134:	00f70733          	add	a4,a4,a5
    2138:	fe442783          	lw	a5,-28(s0)
    213c:	00279793          	slli	a5,a5,0x2
    2140:	00f707b3          	add	a5,a4,a5
    2144:	0007a703          	lw	a4,0(a5)
    2148:	00058513          	mv	a0,a1
    214c:	fe442783          	lw	a5,-28(s0)
    2150:	02f507b3          	mul	a5,a0,a5
    2154:	00279793          	slli	a5,a5,0x2
    2158:	fc442503          	lw	a0,-60(s0)
    215c:	00f50533          	add	a0,a0,a5
    2160:	fe842783          	lw	a5,-24(s0)
    2164:	00279793          	slli	a5,a5,0x2
    2168:	00f507b3          	add	a5,a0,a5
    216c:	0007a783          	lw	a5,0(a5)
    2170:	02f70733          	mul	a4,a4,a5
    2174:	00068513          	mv	a0,a3
    2178:	fec42783          	lw	a5,-20(s0)
    217c:	02f507b3          	mul	a5,a0,a5
    2180:	00279793          	slli	a5,a5,0x2
    2184:	fc042503          	lw	a0,-64(s0)
    2188:	00f50533          	add	a0,a0,a5
    218c:	fe842783          	lw	a5,-24(s0)
    2190:	00279793          	slli	a5,a5,0x2
    2194:	00f507b3          	add	a5,a0,a5
    2198:	0007a783          	lw	a5,0(a5)
    219c:	00068813          	mv	a6,a3
    21a0:	fec42503          	lw	a0,-20(s0)
    21a4:	02a80533          	mul	a0,a6,a0
    21a8:	00251513          	slli	a0,a0,0x2
    21ac:	fc042803          	lw	a6,-64(s0)
    21b0:	00a80533          	add	a0,a6,a0
    21b4:	00f70733          	add	a4,a4,a5
    21b8:	fe842783          	lw	a5,-24(s0)
    21bc:	00279793          	slli	a5,a5,0x2
    21c0:	00f507b3          	add	a5,a0,a5
    21c4:	00e7a023          	sw	a4,0(a5)
    21c8:	fe442783          	lw	a5,-28(s0)
    21cc:	00178793          	addi	a5,a5,1
    21d0:	fef42223          	sw	a5,-28(s0)
    21d4:	fe442703          	lw	a4,-28(s0)
    21d8:	fcc42783          	lw	a5,-52(s0)
    21dc:	f4f742e3          	blt	a4,a5,2120 <matrix_multiply+0xe0>
    21e0:	fe842783          	lw	a5,-24(s0)
    21e4:	00178793          	addi	a5,a5,1
    21e8:	fef42423          	sw	a5,-24(s0)
    21ec:	fe842703          	lw	a4,-24(s0)
    21f0:	fcc42783          	lw	a5,-52(s0)
    21f4:	eef74ee3          	blt	a4,a5,20f0 <matrix_multiply+0xb0>
    21f8:	fec42783          	lw	a5,-20(s0)
    21fc:	00178793          	addi	a5,a5,1
    2200:	fef42623          	sw	a5,-20(s0)
    2204:	fec42703          	lw	a4,-20(s0)
    2208:	fcc42783          	lw	a5,-52(s0)
    220c:	ecf74ee3          	blt	a4,a5,20e8 <matrix_multiply+0xa8>
    2210:	00000013          	nop
    2214:	00000013          	nop
    2218:	03c12083          	lw	ra,60(sp)
    221c:	03812403          	lw	s0,56(sp)
    2220:	03412903          	lw	s2,52(sp)
    2224:	03012983          	lw	s3,48(sp)
    2228:	04010113          	addi	sp,sp,64
    222c:	00008067          	ret

00002230 <main>:
    2230:	f1010113          	addi	sp,sp,-240
    2234:	0e112623          	sw	ra,236(sp)
    2238:	0e812423          	sw	s0,232(sp)
    223c:	0f010413          	addi	s0,sp,240
    2240:	00400793          	li	a5,4
    2244:	fcf42c23          	sw	a5,-40(s0)
    2248:	fe042623          	sw	zero,-20(s0)
    224c:	0880006f          	j	22d4 <main+0xa4>
    2250:	fe042423          	sw	zero,-24(s0)
    2254:	0680006f          	j	22bc <main+0x8c>
    2258:	fec42703          	lw	a4,-20(s0)
    225c:	fe842783          	lw	a5,-24(s0)
    2260:	00f70733          	add	a4,a4,a5
    2264:	fec42783          	lw	a5,-20(s0)
    2268:	00279693          	slli	a3,a5,0x2
    226c:	fe842783          	lw	a5,-24(s0)
    2270:	00f686b3          	add	a3,a3,a5
    2274:	f9840793          	addi	a5,s0,-104
    2278:	00269693          	slli	a3,a3,0x2
    227c:	00f687b3          	add	a5,a3,a5
    2280:	00e7a023          	sw	a4,0(a5)
    2284:	fec42703          	lw	a4,-20(s0)
    2288:	fe842783          	lw	a5,-24(s0)
    228c:	02f70733          	mul	a4,a4,a5
    2290:	fec42783          	lw	a5,-20(s0)
    2294:	00279693          	slli	a3,a5,0x2
    2298:	fe842783          	lw	a5,-24(s0)
    229c:	00f686b3          	add	a3,a3,a5
    22a0:	f5840793          	addi	a5,s0,-168
    22a4:	00269693          	slli	a3,a3,0x2
    22a8:	00f687b3          	add	a5,a3,a5
    22ac:	00e7a023          	sw	a4,0(a5)
    22b0:	fe842783          	lw	a5,-24(s0)
    22b4:	00178793          	addi	a5,a5,1
    22b8:	fef42423          	sw	a5,-24(s0)
    22bc:	fe842703          	lw	a4,-24(s0)
    22c0:	fd842783          	lw	a5,-40(s0)
    22c4:	f8f74ae3          	blt	a4,a5,2258 <main+0x28>
    22c8:	fec42783          	lw	a5,-20(s0)
    22cc:	00178793          	addi	a5,a5,1
    22d0:	fef42623          	sw	a5,-20(s0)
    22d4:	fec42703          	lw	a4,-20(s0)
    22d8:	fd842783          	lw	a5,-40(s0)
    22dc:	f6f74ae3          	blt	a4,a5,2250 <main+0x20>
    22e0:	f1840693          	addi	a3,s0,-232
    22e4:	f5840713          	addi	a4,s0,-168
    22e8:	f9840793          	addi	a5,s0,-104
    22ec:	00070613          	mv	a2,a4
    22f0:	00078593          	mv	a1,a5
    22f4:	fd842503          	lw	a0,-40(s0)
    22f8:	d49ff0ef          	jal	2040 <matrix_multiply>
    22fc:	fe042223          	sw	zero,-28(s0)
    2300:	fe042023          	sw	zero,-32(s0)
    2304:	05c0006f          	j	2360 <main+0x130>
    2308:	fc042e23          	sw	zero,-36(s0)
    230c:	03c0006f          	j	2348 <main+0x118>
    2310:	fe042783          	lw	a5,-32(s0)
    2314:	00279713          	slli	a4,a5,0x2
    2318:	fdc42783          	lw	a5,-36(s0)
    231c:	00f70733          	add	a4,a4,a5
    2320:	f1840793          	addi	a5,s0,-232
    2324:	00271713          	slli	a4,a4,0x2
    2328:	00f707b3          	add	a5,a4,a5
    232c:	0007a783          	lw	a5,0(a5)
    2330:	fe442703          	lw	a4,-28(s0)
    2334:	00f707b3          	add	a5,a4,a5
    2338:	fef42223          	sw	a5,-28(s0)
    233c:	fdc42783          	lw	a5,-36(s0)
    2340:	00178793          	addi	a5,a5,1
    2344:	fcf42e23          	sw	a5,-36(s0)
    2348:	fdc42703          	lw	a4,-36(s0)
    234c:	fd842783          	lw	a5,-40(s0)
    2350:	fcf740e3          	blt	a4,a5,2310 <main+0xe0>
    2354:	fe042783          	lw	a5,-32(s0)
    2358:	00178793          	addi	a5,a5,1
    235c:	fef42023          	sw	a5,-32(s0)
    2360:	fe042703          	lw	a4,-32(s0)
    2364:	fd842783          	lw	a5,-40(s0)
    2368:	faf740e3          	blt	a4,a5,2308 <main+0xd8>
    236c:	fe442583          	lw	a1,-28(s0)
    2370:	000027b7          	lui	a5,0x2
    2374:	60478513          	addi	a0,a5,1540 # 2604 <_etext+0x260>
    2378:	c89ff0ef          	jal	2000 <write_to_peripheral>
    237c:	deadc7b7          	lui	a5,0xdeadc
    2380:	eef78593          	addi	a1,a5,-273 # deadbeef <_stack_start+0xdead7eef>
    2384:	000027b7          	lui	a5,0x2
    2388:	60078513          	addi	a0,a5,1536 # 2600 <_etext+0x25c>
    238c:	c75ff0ef          	jal	2000 <write_to_peripheral>
    2390:	0000006f          	j	2390 <main+0x160>

00002394 <_start>:
    2394:	00002117          	auipc	sp,0x2
    2398:	c6c10113          	addi	sp,sp,-916 # 4000 <_stack_start>
    239c:	e95ff0ef          	jal	2230 <main>
    23a0:	ff5ff06f          	j	2394 <_start>

Disassembly of section .comment:

00000000 <.comment>:
   0:	3a434347          	.insn	4, 0x3a434347
   4:	2820                	.insn	2, 0x2820
   6:	36343067          	.insn	4, 0x36343067
   a:	3639                	.insn	2, 0x3639
   c:	6664                	.insn	2, 0x6664
   e:	3930                	.insn	2, 0x3930
  10:	3336                	.insn	2, 0x3336
  12:	2029                	.insn	2, 0x2029
  14:	3431                	.insn	2, 0x3431
  16:	322e                	.insn	2, 0x322e
  18:	302e                	.insn	2, 0x302e
	...

Disassembly of section .riscv.attributes:

00000000 <.riscv.attributes>:
   0:	3241                	.insn	2, 0x3241
   2:	0000                	.insn	2, 0x
   4:	7200                	.insn	2, 0x7200
   6:	7369                	.insn	2, 0x7369
   8:	01007663          	bgeu	zero,a6,14 <__DYNAMIC+0x14>
   c:	0028                	.insn	2, 0x0028
   e:	0000                	.insn	2, 0x
  10:	1004                	.insn	2, 0x1004
  12:	7205                	.insn	2, 0x7205
  14:	3376                	.insn	2, 0x3376
  16:	6932                	.insn	2, 0x6932
  18:	7032                	.insn	2, 0x7032
  1a:	5f31                	.insn	2, 0x5f31
  1c:	326d                	.insn	2, 0x326d
  1e:	3070                	.insn	2, 0x3070
  20:	7a5f 6369 7273      	.insn	6, 0x727363697a5f
  26:	7032                	.insn	2, 0x7032
  28:	5f30                	.insn	2, 0x5f30
  2a:	6d7a                	.insn	2, 0x6d7a
  2c:	756d                	.insn	2, 0x756d
  2e:	316c                	.insn	2, 0x316c
  30:	3070                	.insn	2, 0x3070
	...
